	.text
	.syntax unified
	.eabi_attribute	67, "2.09"	@ Tag_conformance
	.cpu	cortex-m4
	.eabi_attribute	6, 13	@ Tag_CPU_arch
	.eabi_attribute	7, 77	@ Tag_CPU_arch_profile
	.eabi_attribute	8, 0	@ Tag_ARM_ISA_use
	.eabi_attribute	9, 2	@ Tag_THUMB_ISA_use
	.fpu	fpv4-sp-d16
	.eabi_attribute	27, 1	@ Tag_ABI_HardFP_use
	.eabi_attribute	36, 1	@ Tag_FP_HP_extension
	.eabi_attribute	34, 1	@ Tag_CPU_unaligned_access
	.eabi_attribute	17, 1	@ Tag_ABI_PCS_GOT_use
	.eabi_attribute	20, 2	@ Tag_ABI_FP_denormal
	.eabi_attribute	21, 0	@ Tag_ABI_FP_exceptions
	.eabi_attribute	23, 1	@ Tag_ABI_FP_number_model
	.eabi_attribute	24, 1	@ Tag_ABI_align_needed
	.eabi_attribute	25, 1	@ Tag_ABI_align_preserved
	.eabi_attribute	28, 1	@ Tag_ABI_VFP_args
	.eabi_attribute	38, 1	@ Tag_ABI_FP_16bit_format
	.eabi_attribute	18, 2	@ Tag_ABI_PCS_wchar_t
	.eabi_attribute	26, 1	@ Tag_ABI_enum_size
	.eabi_attribute	14, 0	@ Tag_ABI_PCS_R9_use
	.file	"stm32g4_delay.c"
	.file	1 "C:\\Keil_v5\\ARM\\ARMCLANG\\Bin\\..\\include" "stdint.h"
	.file	2 "C:/Users/Shenny/AppData/Local/Arm/Packs/Keil/STM32G4xx_DFP/1.5.0/Drivers/CMSIS/Device/ST/STM32G4xx/Include" "stm32g474xx.h"
	.section	.text.Delay_us,"ax",%progbits
	.hidden	Delay_us                        @ -- Begin function Delay_us
	.globl	Delay_us
	.p2align	2
	.type	Delay_us,%function
	.code	16                              @ @Delay_us
	.thumb_func
Delay_us:
.Lfunc_begin0:
	.file	3 "C:\\Users\\Shenny\\Desktop\\Data\\Embedded_Github\\Public\\STM32_G474RE\\Keil_UV5\\Lesson_1_Blinky" "stm32g4_delay.c"
	.loc	3 13 0                          @ stm32g4_delay.c:13:0
	.fnstart
	.cfi_sections .debug_frame
	.cfi_startproc
@ %bb.0:
	.pad	#4
	sub	sp, #4
	.cfi_def_cfa_offset 4
	str	r0, [sp]
	movw	r1, #4132
	movt	r1, #16384
	movs	r0, #0
.Ltmp0:
	.loc	3 14 2 prologue_end             @ stm32g4_delay.c:14:2
	str	r0, [r1]
	.loc	3 15 2                          @ stm32g4_delay.c:15:2
	b	.LBB0_1
.LBB0_1:                                @ =>This Inner Loop Header: Depth=1
	.loc	3 0 2 is_stmt 0                 @ stm32g4_delay.c:0:2
	movw	r0, #4132
	movt	r0, #16384
	.loc	3 15 14                         @ stm32g4_delay.c:15:14
	ldr	r0, [r0]
	.loc	3 15 20                         @ stm32g4_delay.c:15:20
	ldr	r1, [sp]
	.loc	3 15 2                          @ stm32g4_delay.c:15:2
	cmp	r0, r1
	bhs	.LBB0_3
	b	.LBB0_2
.LBB0_2:                                @   in Loop: Header=BB0_1 Depth=1
	b	.LBB0_1
.LBB0_3:
	.loc	3 16 1 is_stmt 1                @ stm32g4_delay.c:16:1
	add	sp, #4
	bx	lr
.Ltmp1:
.Lfunc_end0:
	.size	Delay_us, .Lfunc_end0-Delay_us
	.cfi_endproc
	.cantunwind
	.fnend
                                        @ -- End function
	.section	.text.Delay_ms,"ax",%progbits
	.hidden	Delay_ms                        @ -- Begin function Delay_ms
	.globl	Delay_ms
	.p2align	2
	.type	Delay_ms,%function
	.code	16                              @ @Delay_ms
	.thumb_func
Delay_ms:
.Lfunc_begin1:
	.loc	3 19 0                          @ stm32g4_delay.c:19:0
	.fnstart
	.cfi_startproc
@ %bb.0:
	.save	{r7, lr}
	push	{r7, lr}
	.cfi_def_cfa_offset 8
	.cfi_offset lr, -4
	.cfi_offset r7, -8
	.pad	#8
	sub	sp, #8
	.cfi_def_cfa_offset 16
	str	r0, [sp, #4]
	movs	r0, #0
.Ltmp2:
	.loc	3 20 15 prologue_end            @ stm32g4_delay.c:20:15
	str	r0, [sp]
	.loc	3 20 6 is_stmt 0                @ stm32g4_delay.c:20:6
	b	.LBB1_1
.LBB1_1:                                @ =>This Inner Loop Header: Depth=1
.Ltmp3:
	.loc	3 20 21                         @ stm32g4_delay.c:20:21
	ldr	r0, [sp]
	.loc	3 20 25                         @ stm32g4_delay.c:20:25
	ldr	r1, [sp, #4]
.Ltmp4:
	.loc	3 20 2                          @ stm32g4_delay.c:20:2
	cmp	r0, r1
	bhs	.LBB1_4
	b	.LBB1_2
.LBB1_2:                                @   in Loop: Header=BB1_1 Depth=1
	.loc	3 0 2                           @ stm32g4_delay.c:0:2
	mov.w	r0, #1000
.Ltmp5:
	.loc	3 22 3 is_stmt 1                @ stm32g4_delay.c:22:3
	bl	Delay_us
	.loc	3 23 2                          @ stm32g4_delay.c:23:2
	b	.LBB1_3
.Ltmp6:
.LBB1_3:                                @   in Loop: Header=BB1_1 Depth=1
	.loc	3 20 31                         @ stm32g4_delay.c:20:31
	ldr	r0, [sp]
	adds	r0, #1
	str	r0, [sp]
	.loc	3 20 2 is_stmt 0                @ stm32g4_delay.c:20:2
	b	.LBB1_1
.Ltmp7:
.LBB1_4:
	.loc	3 24 1 is_stmt 1                @ stm32g4_delay.c:24:1
	add	sp, #8
	pop	{r7, pc}
.Ltmp8:
.Lfunc_end1:
	.size	Delay_ms, .Lfunc_end1-Delay_ms
	.cfi_endproc
	.cantunwind
	.fnend
                                        @ -- End function
	.section	".note.GNU-stack","",%progbits
	.eabi_attribute	30, 6	@ Tag_ABI_optimization_goals
	.ARM_attribute	16, 1	@ Tag_AV_eba